target datalayout = "e-m:e-p270:32:32-p271:32:32-p272:64:64-i64:64-f80:128-n8:16:32:64-S128"
target triple = "x86_64-pc-linux-gnu"

@.str = private unnamed_addr constant [3 x i8] c"%d\00", align 1
@.str.1 = private unnamed_addr constant [2 x i8] c",\00", align 1

; Function Attrs: noinline nounwind uwtable
define dso_local i32 @main() #0 {
  %1 = alloca i32, align 4
  %2 = alloca i32, align 4
  %3 = alloca i32, align 4
  %4 = alloca [300 x i32], align 16
  %5 = alloca i32, align 4
  %6 = alloca float, align 4
  %7 = alloca [300 x float], align 16
  %8 = alloca float, align 4
  %9 = alloca [10 x i32], align 16
  %10 = alloca i32, align 4
  %11 = alloca i32, align 4
  %12 = alloca i32, align 4
  %13 = alloca i32, align 4
  %14 = alloca i32, align 4
  %15 = alloca i32, align 4
  store i32 0, i32* %1, align 4
  %16 = call i32 (i8*, ...) @__isoc99_scanf(i8* getelementptr inbounds ([3 x i8], [3 x i8]* @.str, i64 0, i64 0), i32* %2)
  %17 = bitcast [300 x i32]* %4 to i8*
  call void @llvm.memset.p0i8.i64(i8* align 16 %17, i8 0, i64 1200, i1 false)
  store i32 0, i32* %5, align 4
  store i32 0, i32* %3, align 4
  br label %18

18:                                               ; preds = %33, %0
  %19 = load i32, i32* %3, align 4
  %20 = load i32, i32* %2, align 4
  %21 = icmp slt i32 %19, %20
  br i1 %21, label %22, label %36

22:                                               ; preds = %18
  %23 = load i32, i32* %3, align 4
  %24 = sext i32 %23 to i64
  %25 = getelementptr inbounds [300 x i32], [300 x i32]* %4, i64 0, i64 %24
  %26 = call i32 (i8*, ...) @__isoc99_scanf(i8* getelementptr inbounds ([3 x i8], [3 x i8]* @.str, i64 0, i64 0), i32* %25)
  %27 = load i32, i32* %3, align 4
  %28 = sext i32 %27 to i64
  %29 = getelementptr inbounds [300 x i32], [300 x i32]* %4, i64 0, i64 %28
  %30 = load i32, i32* %29, align 4
  %31 = load i32, i32* %5, align 4
  %32 = add nsw i32 %31, %30
  store i32 %32, i32* %5, align 4
  br label %33

33:                                               ; preds = %22
  %34 = load i32, i32* %3, align 4
  %35 = add nsw i32 %34, 1
  store i32 %35, i32* %3, align 4
  br label %18

36:                                               ; preds = %18
  %37 = load i32, i32* %5, align 4
  %38 = sitofp i32 %37 to double
  %39 = fmul double %38, 1.000000e+00
  %40 = load i32, i32* %2, align 4
  %41 = sitofp i32 %40 to double
  %42 = fdiv double %39, %41
  %43 = fptrunc double %42 to float
  store float %43, float* %6, align 4
  %44 = bitcast [300 x float]* %7 to i8*
  call void @llvm.memset.p0i8.i64(i8* align 16 %44, i8 0, i64 1200, i1 false)
  store i32 0, i32* %3, align 4
  br label %45

45:                                               ; preds = %81, %36
  %46 = load i32, i32* %3, align 4
  %47 = load i32, i32* %2, align 4
  %48 = icmp slt i32 %46, %47
  br i1 %48, label %49, label %84

49:                                               ; preds = %45
  %50 = load i32, i32* %3, align 4
  %51 = sext i32 %50 to i64
  %52 = getelementptr inbounds [300 x i32], [300 x i32]* %4, i64 0, i64 %51
  %53 = load i32, i32* %52, align 4
  %54 = sitofp i32 %53 to float
  %55 = load float, float* %6, align 4
  %56 = fsub float %54, %55
  %57 = fcmp oge float %56, 0.000000e+00
  br i1 %57, label %58, label %69

58:                                               ; preds = %49
  %59 = load i32, i32* %3, align 4
  %60 = sext i32 %59 to i64
  %61 = getelementptr inbounds [300 x i32], [300 x i32]* %4, i64 0, i64 %60
  %62 = load i32, i32* %61, align 4
  %63 = sitofp i32 %62 to float
  %64 = load float, float* %6, align 4
  %65 = fsub float %63, %64
  %66 = load i32, i32* %3, align 4
  %67 = sext i32 %66 to i64
  %68 = getelementptr inbounds [300 x float], [300 x float]* %7, i64 0, i64 %67
  store float %65, float* %68, align 4
  br label %80

69:                                               ; preds = %49
  %70 = load float, float* %6, align 4
  %71 = load i32, i32* %3, align 4
  %72 = sext i32 %71 to i64
  %73 = getelementptr inbounds [300 x i32], [300 x i32]* %4, i64 0, i64 %72
  %74 = load i32, i32* %73, align 4
  %75 = sitofp i32 %74 to float
  %76 = fsub float %70, %75
  %77 = load i32, i32* %3, align 4
  %78 = sext i32 %77 to i64
  %79 = getelementptr inbounds [300 x float], [300 x float]* %7, i64 0, i64 %78
  store float %76, float* %79, align 4
  br label %80

80:                                               ; preds = %69, %58
  br label %81

81:                                               ; preds = %80
  %82 = load i32, i32* %3, align 4
  %83 = add nsw i32 %82, 1
  store i32 %83, i32* %3, align 4
  br label %45

84:                                               ; preds = %45
  %85 = getelementptr inbounds [300 x float], [300 x float]* %7, i64 0, i64 0
  %86 = load float, float* %85, align 16
  store float %86, float* %8, align 4
  store i32 1, i32* %3, align 4
  br label %87

87:                                               ; preds = %104, %84
  %88 = load i32, i32* %3, align 4
  %89 = load i32, i32* %2, align 4
  %90 = icmp slt i32 %88, %89
  br i1 %90, label %91, label %107

91:                                               ; preds = %87
  %92 = load i32, i32* %3, align 4
  %93 = sext i32 %92 to i64
  %94 = getelementptr inbounds [300 x float], [300 x float]* %7, i64 0, i64 %93
  %95 = load float, float* %94, align 4
  %96 = load float, float* %8, align 4
  %97 = fcmp oge float %95, %96
  br i1 %97, label %98, label %103

98:                                               ; preds = %91
  %99 = load i32, i32* %3, align 4
  %100 = sext i32 %99 to i64
  %101 = getelementptr inbounds [300 x float], [300 x float]* %7, i64 0, i64 %100
  %102 = load float, float* %101, align 4
  store float %102, float* %8, align 4
  br label %103

103:                                              ; preds = %98, %91
  br label %104

104:                                              ; preds = %103
  %105 = load i32, i32* %3, align 4
  %106 = add nsw i32 %105, 1
  store i32 %106, i32* %3, align 4
  br label %87

107:                                              ; preds = %87
  %108 = bitcast [10 x i32]* %9 to i8*
  call void @llvm.memset.p0i8.i64(i8* align 16 %108, i8 0, i64 40, i1 false)
  store i32 0, i32* %11, align 4
  store i32 0, i32* %3, align 4
  br label %109

109:                                              ; preds = %131, %107
  %110 = load i32, i32* %3, align 4
  %111 = load i32, i32* %2, align 4
  %112 = icmp slt i32 %110, %111
  br i1 %112, label %113, label %134

113:                                              ; preds = %109
  %114 = load i32, i32* %3, align 4
  %115 = sext i32 %114 to i64
  %116 = getelementptr inbounds [300 x float], [300 x float]* %7, i64 0, i64 %115
  %117 = load float, float* %116, align 4
  %118 = load float, float* %8, align 4
  %119 = fcmp oeq float %117, %118
  br i1 %119, label %120, label %130

120:                                              ; preds = %113
  %121 = load i32, i32* %11, align 4
  %122 = add nsw i32 %121, 1
  store i32 %122, i32* %11, align 4
  %123 = load i32, i32* %3, align 4
  %124 = sext i32 %123 to i64
  %125 = getelementptr inbounds [300 x i32], [300 x i32]* %4, i64 0, i64 %124
  %126 = load i32, i32* %125, align 4
  %127 = load i32, i32* %11, align 4
  %128 = sext i32 %127 to i64
  %129 = getelementptr inbounds [10 x i32], [10 x i32]* %9, i64 0, i64 %128
  store i32 %126, i32* %129, align 4
  br label %130

130:                                              ; preds = %120, %113
  br label %131

131:                                              ; preds = %130
  %132 = load i32, i32* %3, align 4
  %133 = add nsw i32 %132, 1
  store i32 %133, i32* %3, align 4
  br label %109

134:                                              ; preds = %109
  %135 = load i32, i32* %11, align 4
  %136 = icmp eq i32 %135, 1
  br i1 %136, label %137, label %141

137:                                              ; preds = %134
  %138 = getelementptr inbounds [10 x i32], [10 x i32]* %9, i64 0, i64 1
  %139 = load i32, i32* %138, align 4
  %140 = call i32 (i8*, ...) @printf(i8* getelementptr inbounds ([3 x i8], [3 x i8]* @.str, i64 0, i64 0), i32 %139)
  br label %211

141:                                              ; preds = %134
  %142 = load i32, i32* %11, align 4
  %143 = sub nsw i32 %142, 1
  store i32 %143, i32* %12, align 4
  br label %144

144:                                              ; preds = %186, %141
  %145 = load i32, i32* %12, align 4
  %146 = icmp sgt i32 %145, 0
  br i1 %146, label %147, label %189

147:                                              ; preds = %144
  store i32 0, i32* %13, align 4
  br label %148

148:                                              ; preds = %182, %147
  %149 = load i32, i32* %13, align 4
  %150 = load i32, i32* %12, align 4
  %151 = icmp slt i32 %149, %150
  br i1 %151, label %152, label %185

152:                                              ; preds = %148
  %153 = load i32, i32* %13, align 4
  %154 = sext i32 %153 to i64
  %155 = getelementptr inbounds [10 x i32], [10 x i32]* %9, i64 0, i64 %154
  %156 = load i32, i32* %155, align 4
  %157 = load i32, i32* %13, align 4
  %158 = add nsw i32 %157, 1
  %159 = sext i32 %158 to i64
  %160 = getelementptr inbounds [10 x i32], [10 x i32]* %9, i64 0, i64 %159
  %161 = load i32, i32* %160, align 4
  %162 = icmp sgt i32 %156, %161
  br i1 %162, label %163, label %181

163:                                              ; preds = %152
  %164 = load i32, i32* %13, align 4
  %165 = sext i32 %164 to i64
  %166 = getelementptr inbounds [10 x i32], [10 x i32]* %9, i64 0, i64 %165
  %167 = load i32, i32* %166, align 4
  store i32 %167, i32* %14, align 4
  %168 = load i32, i32* %13, align 4
  %169 = add nsw i32 %168, 1
  %170 = sext i32 %169 to i64
  %171 = getelementptr inbounds [10 x i32], [10 x i32]* %9, i64 0, i64 %170
  %172 = load i32, i32* %171, align 4
  %173 = load i32, i32* %13, align 4
  %174 = sext i32 %173 to i64
  %175 = getelementptr inbounds [10 x i32], [10 x i32]* %9, i64 0, i64 %174
  store i32 %172, i32* %175, align 4
  %176 = load i32, i32* %14, align 4
  %177 = load i32, i32* %13, align 4
  %178 = add nsw i32 %177, 1
  %179 = sext i32 %178 to i64
  %180 = getelementptr inbounds [10 x i32], [10 x i32]* %9, i64 0, i64 %179
  store i32 %176, i32* %180, align 4
  br label %181

181:                                              ; preds = %163, %152
  br label %182

182:                                              ; preds = %181
  %183 = load i32, i32* %13, align 4
  %184 = add nsw i32 %183, 1
  store i32 %184, i32* %13, align 4
  br label %148

185:                                              ; preds = %148
  br label %186

186:                                              ; preds = %185
  %187 = load i32, i32* %12, align 4
  %188 = add nsw i32 %187, -1
  store i32 %188, i32* %12, align 4
  br label %144

189:                                              ; preds = %144
  store i32 1, i32* %15, align 4
  br label %190

190:                                              ; preds = %207, %189
  %191 = load i32, i32* %15, align 4
  %192 = load i32, i32* %11, align 4
  %193 = icmp sle i32 %191, %192
  br i1 %193, label %194, label %210

194:                                              ; preds = %190
  %195 = load i32, i32* %15, align 4
  %196 = sext i32 %195 to i64
  %197 = getelementptr inbounds [10 x i32], [10 x i32]* %9, i64 0, i64 %196
  %198 = load i32, i32* %197, align 4
  %199 = call i32 (i8*, ...) @printf(i8* getelementptr inbounds ([3 x i8], [3 x i8]* @.str, i64 0, i64 0), i32 %198)
  %200 = load i32, i32* %15, align 4
  %201 = load i32, i32* %11, align 4
  %202 = sub nsw i32 %201, 1
  %203 = icmp sle i32 %200, %202
  br i1 %203, label %204, label %206

204:                                              ; preds = %194
  %205 = call i32 (i8*, ...) @printf(i8* getelementptr inbounds ([2 x i8], [2 x i8]* @.str.1, i64 0, i64 0))
  br label %206

206:                                              ; preds = %204, %194
  br label %207

207:                                              ; preds = %206
  %208 = load i32, i32* %15, align 4
  %209 = add nsw i32 %208, 1
  store i32 %209, i32* %15, align 4
  br label %190

210:                                              ; preds = %190
  br label %211

211:                                              ; preds = %210, %137
  ret i32 0
}